target datalayout = "e-m:e-p270:32:32-p271:32:32-p272:64:64-i64:64-i128:128-f80:128-n8:16:32:64-S128"
target triple = "x86_64-pc-linux-gnu"

%struct.TCGContext = type { ptr, ptr, ptr, ptr, ptr, i32, i32, i32, i32, i32, i32, i32, i8, i8, i8, i32, i32, i64, i64, i64, ptr, ptr, ptr, ptr, ptr, i64, ptr, ptr, ptr, ptr, %struct.anon, ptr, ptr, ptr, ptr, ptr, [6 x ptr], [6 x %struct.TCGTempSet], [512 x %struct.TCGTemp], %union.anon, %union.anon, %struct.anon.0, ptr, [32 x ptr], [512 x i16], ptr, [1 x %struct.__jmp_buf_tag] }
%struct.anon = type { ptr, ptr }
%struct.TCGTempSet = type { [8 x i64] }
%struct.TCGTemp = type { i64, i64, ptr, i64, ptr, i64, ptr }
%union.anon = type { %struct.QTailQLink }
%struct.QTailQLink = type { ptr, ptr }
%struct.anon.0 = type { ptr, ptr }
%struct.__jmp_buf_tag = type { [8 x i64], i32, %struct.__sigset_t }
%struct.__sigset_t = type { [16 x i64] }
%struct.TCGLabelPoolData = type { ptr, ptr, i64, i32, i32, [0 x i64] }

@tcg_ctx = dso_local thread_local global ptr null, align 8
@tcg_splitwx_diff = dso_local global i64 0, align 8

; Function Attrs: inlinehint nounwind sspstrong uwtable
define internal ptr @tcg_malloc(i32 noundef %0) #3 {
  %2 = alloca ptr, align 8
  %3 = alloca i32, align 4
  %4 = alloca ptr, align 8
  %5 = alloca ptr, align 8
  %6 = alloca ptr, align 8
  %7 = alloca i32, align 4
  store i32 %0, ptr %3, align 4
  call void @llvm.lifetime.start.p0(i64 8, ptr %4) #19
  %8 = call align 8 ptr @llvm.threadlocal.address.p0(ptr align 8 @tcg_ctx)
  %9 = load ptr, ptr %8, align 8
  store ptr %9, ptr %4, align 8
  call void @llvm.lifetime.start.p0(i64 8, ptr %5) #19
  store ptr null, ptr %5, align 8, !annotation !4
  call void @llvm.lifetime.start.p0(i64 8, ptr %6) #19
  store ptr null, ptr %6, align 8, !annotation !4
  %10 = load i32, ptr %3, align 4
  %11 = add i32 %10, 8
  %12 = sub i32 %11, 1
  %13 = sdiv i32 %12, 8
  %14 = mul i32 %13, 8
  store i32 %14, ptr %3, align 4
  %15 = load ptr, ptr %4, align 8
  %16 = getelementptr inbounds nuw %struct.TCGContext, ptr %15, i32 0, i32 0
  %17 = load ptr, ptr %16, align 8
  store ptr %17, ptr %5, align 8
  %18 = load ptr, ptr %5, align 8
  %19 = load i32, ptr %3, align 4
  %20 = sext i32 %19 to i64
  %21 = getelementptr inbounds i8, ptr %18, i64 %20
  store ptr %21, ptr %6, align 8
  %22 = load ptr, ptr %6, align 8
  %23 = load ptr, ptr %4, align 8
  %24 = getelementptr inbounds nuw %struct.TCGContext, ptr %23, i32 0, i32 1
  %25 = load ptr, ptr %24, align 8
  %26 = icmp ugt ptr %22, %25
  %27 = xor i1 %26, true
  %28 = xor i1 %27, true
  %29 = zext i1 %28 to i32
  %30 = sext i32 %29 to i64
  %31 = call i64 @llvm.expect.i64(i64 %30, i64 0)
  %32 = icmp ne i64 %31, 0
  br i1 %32, label %33, label %38

33:                                               ; preds = %1
  %34 = call align 8 ptr @llvm.threadlocal.address.p0(ptr align 8 @tcg_ctx)
  %35 = load ptr, ptr %34, align 8
  %36 = load i32, ptr %3, align 4
  %37 = call ptr @tcg_malloc_internal(ptr noundef %35, i32 noundef %36)
  store ptr %37, ptr %2, align 8
  store i32 1, ptr %7, align 4
  br label %43

38:                                               ; preds = %1
  %39 = load ptr, ptr %6, align 8
  %40 = load ptr, ptr %4, align 8
  %41 = getelementptr inbounds nuw %struct.TCGContext, ptr %40, i32 0, i32 0
  store ptr %39, ptr %41, align 8
  %42 = load ptr, ptr %5, align 8
  store ptr %42, ptr %2, align 8
  store i32 1, ptr %7, align 4
  br label %43

43:                                               ; preds = %38, %33
  call void @llvm.lifetime.end.p0(i64 8, ptr %6) #19
  call void @llvm.lifetime.end.p0(i64 8, ptr %5) #19
  call void @llvm.lifetime.end.p0(i64 8, ptr %4) #19
  %44 = load ptr, ptr %2, align 8
  ret ptr %44
}

; Function Attrs: nounwind sspstrong uwtable
define internal void @new_pool_insert(ptr noundef %0, ptr noundef %1) #0 {
  %3 = alloca ptr, align 8
  %4 = alloca ptr, align 8
  %5 = alloca ptr, align 8
  %6 = alloca ptr, align 8
  %7 = alloca i32, align 4
  store ptr %0, ptr %3, align 8
  store ptr %1, ptr %4, align 8
  call void @llvm.lifetime.start.p0(i64 8, ptr %5) #19
  store ptr null, ptr %5, align 8, !annotation !4
  call void @llvm.lifetime.start.p0(i64 8, ptr %6) #19
  store ptr null, ptr %6, align 8, !annotation !4
  call void @llvm.lifetime.start.p0(i64 4, ptr %7) #19
  %8 = load ptr, ptr %4, align 8
  %9 = getelementptr inbounds nuw %struct.TCGLabelPoolData, ptr %8, i32 0, i32 4
  %10 = load i32, ptr %9, align 4
  store i32 %10, ptr %7, align 4
  %11 = load ptr, ptr %3, align 8
  %12 = getelementptr inbounds nuw %struct.TCGContext, ptr %11, i32 0, i32 31
  store ptr %12, ptr %6, align 8
  br label %13

13:                                               ; preds = %45, %2
  %14 = load ptr, ptr %6, align 8
  %15 = load ptr, ptr %14, align 8
  store ptr %15, ptr %5, align 8
  %16 = icmp ne ptr %15, null
  br i1 %16, label %17, label %48

17:                                               ; preds = %13
  %18 = load i32, ptr %7, align 4
  %19 = load ptr, ptr %5, align 8
  %20 = getelementptr inbounds nuw %struct.TCGLabelPoolData, ptr %19, i32 0, i32 4
  %21 = load i32, ptr %20, align 4
  %22 = icmp ugt i32 %18, %21
  br i1 %22, label %23, label %24

23:                                               ; preds = %17
  br label %48

24:                                               ; preds = %17
  %25 = load i32, ptr %7, align 4
  %26 = load ptr, ptr %5, align 8
  %27 = getelementptr inbounds nuw %struct.TCGLabelPoolData, ptr %26, i32 0, i32 4
  %28 = load i32, ptr %27, align 4
  %29 = icmp ult i32 %25, %28
  br i1 %29, label %30, label %31

30:                                               ; preds = %24
  br label %45

31:                                               ; preds = %24
  %32 = load ptr, ptr %4, align 8
  %33 = getelementptr inbounds nuw %struct.TCGLabelPoolData, ptr %32, i32 0, i32 5
  %34 = getelementptr inbounds [0 x i64], ptr %33, i64 0, i64 0
  %35 = load ptr, ptr %5, align 8
  %36 = getelementptr inbounds nuw %struct.TCGLabelPoolData, ptr %35, i32 0, i32 5
  %37 = getelementptr inbounds [0 x i64], ptr %36, i64 0, i64 0
  %38 = load i32, ptr %7, align 4
  %39 = sext i32 %38 to i64
  %40 = mul i64 8, %39
  %41 = call i32 @memcmp(ptr noundef %34, ptr noundef %37, i64 noundef %40) #23
  %42 = icmp sge i32 %41, 0
  br i1 %42, label %43, label %44

43:                                               ; preds = %31
  br label %48

44:                                               ; preds = %31
  br label %45

45:                                               ; preds = %44, %30
  %46 = load ptr, ptr %5, align 8
  %47 = getelementptr inbounds nuw %struct.TCGLabelPoolData, ptr %46, i32 0, i32 0
  store ptr %47, ptr %6, align 8
  br label %13, !llvm.loop !93

48:                                               ; preds = %43, %23, %13
  %49 = load ptr, ptr %6, align 8
  %50 = load ptr, ptr %49, align 8
  %51 = load ptr, ptr %4, align 8
  %52 = getelementptr inbounds nuw %struct.TCGLabelPoolData, ptr %51, i32 0, i32 0
  store ptr %50, ptr %52, align 8
  %53 = load ptr, ptr %4, align 8
  %54 = load ptr, ptr %6, align 8
  store ptr %53, ptr %54, align 8
  call void @llvm.lifetime.end.p0(i64 4, ptr %7) #19
  call void @llvm.lifetime.end.p0(i64 8, ptr %6) #19
  call void @llvm.lifetime.end.p0(i64 8, ptr %5) #19
  ret void
}

; Function Attrs: nounwind sspstrong uwtable
define internal ptr @new_pool_alloc(ptr noundef %0, i32 noundef %1, i32 noundef %2, ptr noundef %3, i64 noundef %4) #0 {
  %6 = alloca ptr, align 8
  %7 = alloca i32, align 4
  %8 = alloca i32, align 4
  %9 = alloca ptr, align 8
  %10 = alloca i64, align 8
  %11 = alloca ptr, align 8
  store ptr %0, ptr %6, align 8
  store i32 %1, ptr %7, align 4
  store i32 %2, ptr %8, align 4
  store ptr %3, ptr %9, align 8
  store i64 %4, ptr %10, align 8
  call void @llvm.lifetime.start.p0(i64 8, ptr %11) #19
  %12 = load i32, ptr %7, align 4
  %13 = sext i32 %12 to i64
  %14 = mul i64 8, %13
  %15 = add i64 32, %14
  %16 = trunc i64 %15 to i32
  %17 = call ptr @tcg_malloc(i32 noundef %16)
  store ptr %17, ptr %11, align 8
  %18 = load ptr, ptr %9, align 8
  %19 = load ptr, ptr %11, align 8
  %20 = getelementptr inbounds nuw %struct.TCGLabelPoolData, ptr %19, i32 0, i32 1
  store ptr %18, ptr %20, align 8
  %21 = load i64, ptr %10, align 8
  %22 = load ptr, ptr %11, align 8
  %23 = getelementptr inbounds nuw %struct.TCGLabelPoolData, ptr %22, i32 0, i32 2
  store i64 %21, ptr %23, align 8
  %24 = load i32, ptr %8, align 4
  %25 = load ptr, ptr %11, align 8
  %26 = getelementptr inbounds nuw %struct.TCGLabelPoolData, ptr %25, i32 0, i32 3
  store i32 %24, ptr %26, align 8
  %27 = load i32, ptr %7, align 4
  %28 = load ptr, ptr %11, align 8
  %29 = getelementptr inbounds nuw %struct.TCGLabelPoolData, ptr %28, i32 0, i32 4
  store i32 %27, ptr %29, align 4
  %30 = load ptr, ptr %11, align 8
  call void @llvm.lifetime.end.p0(i64 8, ptr %11) #19
  ret ptr %30
}

; Function Attrs: alwaysinline nounwind
define internal ptr @memcpy.inline(ptr noalias nonnull %0, ptr noalias nonnull %1, i64 %2) #4 {
  %4 = alloca ptr, align 8
  %5 = alloca ptr, align 8
  %6 = alloca i64, align 8
  store ptr %0, ptr %4, align 8
  store ptr %1, ptr %5, align 8
  store i64 %2, ptr %6, align 8
  %7 = load ptr, ptr %4, align 8
  %8 = load ptr, ptr %5, align 8
  %9 = load i64, ptr %6, align 8
  %10 = load ptr, ptr %4, align 8
  %11 = call i64 @llvm.objectsize.i64.p0(ptr %10, i1 false, i1 true, i1 false)
  %12 = call ptr @__memcpy_chk(ptr noundef %7, ptr noundef %8, i64 noundef %9, i64 noundef %11) #19
  ret ptr %12
}

; Function Attrs: inlinehint nounwind sspstrong uwtable
define internal i64 @tcg_ptr_byte_diff(ptr noundef %0, ptr noundef %1) #3 {
  %3 = alloca ptr, align 8
  %4 = alloca ptr, align 8
  store ptr %0, ptr %3, align 8
  store ptr %1, ptr %4, align 8
  %5 = load ptr, ptr %3, align 8
  %6 = load ptr, ptr %4, align 8
  %7 = ptrtoint ptr %5 to i64
  %8 = ptrtoint ptr %6 to i64
  %9 = sub i64 %7, %8
  ret i64 %9
}

; Function Attrs: inlinehint nounwind sspstrong uwtable
define internal ptr @tcg_splitwx_to_rx(ptr noundef %0) #3 {
  %2 = alloca ptr, align 8
  store ptr %0, ptr %2, align 8
  %3 = load ptr, ptr %2, align 8
  %4 = icmp ne ptr %3, null
  br i1 %4, label %5, label %9

5:                                                ; preds = %1
  %6 = load ptr, ptr %2, align 8
  %7 = load i64, ptr @tcg_splitwx_diff, align 8
  %8 = getelementptr inbounds nuw i8, ptr %6, i64 %7
  br label %10

9:                                                ; preds = %1
  br label %10

10:                                               ; preds = %9, %5
  %11 = phi ptr [ %8, %5 ], [ null, %9 ]
  ret ptr %11
}

; Function Attrs: nounwind sspstrong uwtable
define internal void @new_pool_label(ptr noundef %0, i64 noundef %1, i32 noundef %2, ptr noundef %3, i64 noundef %4) #0 {
  %6 = alloca ptr, align 8
  %7 = alloca i64, align 8
  %8 = alloca i32, align 4
  %9 = alloca ptr, align 8
  %10 = alloca i64, align 8
  %11 = alloca ptr, align 8
  store ptr %0, ptr %6, align 8
  store i64 %1, ptr %7, align 8
  store i32 %2, ptr %8, align 4
  store ptr %3, ptr %9, align 8
  store i64 %4, ptr %10, align 8
  call void @llvm.lifetime.start.p0(i64 8, ptr %11) #19
  %12 = load ptr, ptr %6, align 8
  %13 = load i32, ptr %8, align 4
  %14 = load ptr, ptr %9, align 8
  %15 = load i64, ptr %10, align 8
  %16 = call ptr @new_pool_alloc(ptr noundef %12, i32 noundef 1, i32 noundef %13, ptr noundef %14, i64 noundef %15)
  store ptr %16, ptr %11, align 8
  %17 = load i64, ptr %7, align 8
  %18 = load ptr, ptr %11, align 8
  %19 = getelementptr inbounds nuw %struct.TCGLabelPoolData, ptr %18, i32 0, i32 5
  %20 = getelementptr inbounds [0 x i64], ptr %19, i64 0, i64 0
  store i64 %17, ptr %20, align 8
  %21 = load ptr, ptr %6, align 8
  %22 = load ptr, ptr %11, align 8
  call void @new_pool_insert(ptr noundef %21, ptr noundef %22)
  call void @llvm.lifetime.end.p0(i64 8, ptr %11) #19
  ret void
}

; Function Attrs: inlinehint nounwind sspstrong uwtable
define internal void @tcg_out8(ptr noundef %0, i8 noundef zeroext %1) #3 {
  %3 = alloca ptr, align 8
  %4 = alloca i8, align 1
  store ptr %0, ptr %3, align 8
  store i8 %1, ptr %4, align 1
  %5 = load i8, ptr %4, align 1
  %6 = load ptr, ptr %3, align 8
  %7 = getelementptr inbounds nuw %struct.TCGContext, ptr %6, i32 0, i32 23
  %8 = load ptr, ptr %7, align 8
  %9 = getelementptr inbounds nuw i8, ptr %8, i32 1
  store ptr %9, ptr %7, align 8
  store i8 %5, ptr %8, align 1
  ret void
}

; Function Attrs: inlinehint nounwind sspstrong uwtable
define internal void @tcg_out32(ptr noundef %0, i32 noundef %1) #3 {
  %3 = alloca ptr, align 8
  %4 = alloca i32, align 4
  %5 = alloca ptr, align 8
  store ptr %0, ptr %3, align 8
  store i32 %1, ptr %4, align 4
  call void @llvm.lifetime.start.p0(i64 8, ptr %5) #19
  %6 = load ptr, ptr %3, align 8
  %7 = getelementptr inbounds nuw %struct.TCGContext, ptr %6, i32 0, i32 23
  %8 = load ptr, ptr %7, align 8
  store ptr %8, ptr %5, align 8
  %9 = load ptr, ptr %5, align 8
  %10 = call ptr @memcpy.inline(ptr noundef %9, ptr noundef %4, i64 noundef 4) #19
  %11 = load ptr, ptr %5, align 8
  %12 = getelementptr inbounds i8, ptr %11, i64 4
  %13 = load ptr, ptr %3, align 8
  %14 = getelementptr inbounds nuw %struct.TCGContext, ptr %13, i32 0, i32 23
  store ptr %12, ptr %14, align 8
  call void @llvm.lifetime.end.p0(i64 8, ptr %5) #19
  ret void
}

; Function Attrs: nounwind sspstrong uwtable
define internal void @tcg_out_opc(ptr noundef %0, i32 noundef %1, i32 noundef %2, i32 noundef %3, i32 noundef %4) #0 {
  %6 = alloca ptr, align 8
  %7 = alloca i32, align 4
  %8 = alloca i32, align 4
  %9 = alloca i32, align 4
  %10 = alloca i32, align 4
  %11 = alloca i32, align 4
  store ptr %0, ptr %6, align 8
  store i32 %1, ptr %7, align 4
  store i32 %2, ptr %8, align 4
  store i32 %3, ptr %9, align 4
  store i32 %4, ptr %10, align 4
  call void @llvm.lifetime.start.p0(i64 4, ptr %11) #19
  store i32 0, ptr %11, align 4, !annotation !4
  %12 = load i32, ptr %7, align 4
  %13 = and i32 %12, 32768
  %14 = icmp ne i32 %13, 0
  br i1 %14, label %15, label %17

15:                                               ; preds = %5
  %16 = load ptr, ptr %6, align 8
  call void @tcg_out8(ptr noundef %16, i8 noundef zeroext 101)
  br label %17

17:                                               ; preds = %15, %5
  %18 = load i32, ptr %7, align 4
  %19 = and i32 %18, 1024
  %20 = icmp ne i32 %19, 0
  br i1 %20, label %21, label %31

21:                                               ; preds = %17
  br label %22

22:                                               ; preds = %21
  %23 = load i32, ptr %7, align 4
  %24 = and i32 %23, 4096
  %25 = icmp eq i32 %24, 0
  br i1 %25, label %27, label %26

26:                                               ; preds = %22
  unreachable

27:                                               ; preds = %22
  br label %28

28:                                               ; preds = %27
  br label %29

29:                                               ; preds = %28
  %30 = load ptr, ptr %6, align 8
  call void @tcg_out8(ptr noundef %30, i8 noundef zeroext 102)
  br label %31

31:                                               ; preds = %29, %17
  %32 = load i32, ptr %7, align 4
  %33 = and i32 %32, 131072
  %34 = icmp ne i32 %33, 0
  br i1 %34, label %35, label %37

35:                                               ; preds = %31
  %36 = load ptr, ptr %6, align 8
  call void @tcg_out8(ptr noundef %36, i8 noundef zeroext -13)
  br label %44

37:                                               ; preds = %31
  %38 = load i32, ptr %7, align 4
  %39 = and i32 %38, 262144
  %40 = icmp ne i32 %39, 0
  br i1 %40, label %41, label %43

41:                                               ; preds = %37
  %42 = load ptr, ptr %6, align 8
  call void @tcg_out8(ptr noundef %42, i8 noundef zeroext -14)
  br label %43

43:                                               ; preds = %41, %37
  br label %44

44:                                               ; preds = %43, %35
  store i32 0, ptr %11, align 4
  %45 = load i32, ptr %7, align 4
  %46 = and i32 %45, 4096
  %47 = icmp ne i32 %46, 0
  %48 = select i1 %47, i32 8, i32 0
  %49 = load i32, ptr %11, align 4
  %50 = or i32 %49, %48
  store i32 %50, ptr %11, align 4
  %51 = load i32, ptr %8, align 4
  %52 = and i32 %51, 8
  %53 = ashr i32 %52, 1
  %54 = load i32, ptr %11, align 4
  %55 = or i32 %54, %53
  store i32 %55, ptr %11, align 4
  %56 = load i32, ptr %10, align 4
  %57 = and i32 %56, 8
  %58 = ashr i32 %57, 2
  %59 = load i32, ptr %11, align 4
  %60 = or i32 %59, %58
  store i32 %60, ptr %11, align 4
  %61 = load i32, ptr %9, align 4
  %62 = and i32 %61, 8
  %63 = ashr i32 %62, 3
  %64 = load i32, ptr %11, align 4
  %65 = or i32 %64, %63
  store i32 %65, ptr %11, align 4
  %66 = load i32, ptr %7, align 4
  %67 = load i32, ptr %8, align 4
  %68 = icmp sge i32 %67, 4
  %69 = select i1 %68, i32 8192, i32 0
  %70 = and i32 %66, %69
  %71 = load i32, ptr %11, align 4
  %72 = or i32 %71, %70
  store i32 %72, ptr %11, align 4
  %73 = load i32, ptr %7, align 4
  %74 = load i32, ptr %9, align 4
  %75 = icmp sge i32 %74, 4
  %76 = select i1 %75, i32 16384, i32 0
  %77 = and i32 %73, %76
  %78 = load i32, ptr %11, align 4
  %79 = or i32 %78, %77
  store i32 %79, ptr %11, align 4
  %80 = load i32, ptr %11, align 4
  %81 = icmp ne i32 %80, 0
  br i1 %81, label %82, label %87

82:                                               ; preds = %44
  %83 = load ptr, ptr %6, align 8
  %84 = load i32, ptr %11, align 4
  %85 = or i32 %84, 64
  %86 = trunc i32 %85 to i8
  call void @tcg_out8(ptr noundef %83, i8 noundef zeroext %86)
  br label %87

87:                                               ; preds = %82, %44
  %88 = load i32, ptr %7, align 4
  %89 = and i32 %88, 66304
  %90 = icmp ne i32 %89, 0
  br i1 %90, label %91, label %106

91:                                               ; preds = %87
  %92 = load ptr, ptr %6, align 8
  call void @tcg_out8(ptr noundef %92, i8 noundef zeroext 15)
  %93 = load i32, ptr %7, align 4
  %94 = and i32 %93, 512
  %95 = icmp ne i32 %94, 0
  br i1 %95, label %96, label %98

96:                                               ; preds = %91
  %97 = load ptr, ptr %6, align 8
  call void @tcg_out8(ptr noundef %97, i8 noundef zeroext 56)
  br label %105

98:                                               ; preds = %91
  %99 = load i32, ptr %7, align 4
  %100 = and i32 %99, 65536
  %101 = icmp ne i32 %100, 0
  br i1 %101, label %102, label %104

102:                                              ; preds = %98
  %103 = load ptr, ptr %6, align 8
  call void @tcg_out8(ptr noundef %103, i8 noundef zeroext 58)
  br label %104

104:                                              ; preds = %102, %98
  br label %105

105:                                              ; preds = %104, %96
  br label %106

106:                                              ; preds = %105, %87
  %107 = load ptr, ptr %6, align 8
  %108 = load i32, ptr %7, align 4
  %109 = trunc i32 %108 to i8
  call void @tcg_out8(ptr noundef %107, i8 noundef zeroext %109)
  call void @llvm.lifetime.end.p0(i64 4, ptr %11) #19
  ret void
}

; Function Attrs: inlinehint nounwind sspstrong uwtable
define internal i64 @tcg_pcrel_diff(ptr noundef %0, ptr noundef %1) #3 {
  %3 = alloca ptr, align 8
  %4 = alloca ptr, align 8
  store ptr %0, ptr %3, align 8
  store ptr %1, ptr %4, align 8
  %5 = load ptr, ptr %4, align 8
  %6 = load ptr, ptr %3, align 8
  %7 = getelementptr inbounds nuw %struct.TCGContext, ptr %6, i32 0, i32 23
  %8 = load ptr, ptr %7, align 8
  %9 = call ptr @tcg_splitwx_to_rx(ptr noundef %8)
  %10 = call i64 @tcg_ptr_byte_diff(ptr noundef %5, ptr noundef %9)
  ret i64 %10
}

; Function Attrs: nounwind sspstrong uwtable
define internal void @tcg_out_branch(ptr noundef %0, i32 noundef %1, ptr noundef %2) #0 {
  %4 = alloca ptr, align 8
  %5 = alloca i32, align 4
  %6 = alloca ptr, align 8
  %7 = alloca i64, align 8
  store ptr %0, ptr %4, align 8
  store i32 %1, ptr %5, align 4
  store ptr %2, ptr %6, align 8
  call void @llvm.lifetime.start.p0(i64 8, ptr %7) #19
  %8 = load ptr, ptr %4, align 8
  %9 = load ptr, ptr %6, align 8
  %10 = call i64 @tcg_pcrel_diff(ptr noundef %8, ptr noundef %9)
  %11 = sub i64 %10, 5
  store i64 %11, ptr %7, align 8
  %12 = load i64, ptr %7, align 8
  %13 = load i64, ptr %7, align 8
  %14 = trunc i64 %13 to i32
  %15 = sext i32 %14 to i64
  %16 = icmp eq i64 %12, %15
  br i1 %16, label %17, label %25

17:                                               ; preds = %3
  %18 = load ptr, ptr %4, align 8
  %19 = load i32, ptr %5, align 4
  %20 = icmp ne i32 %19, 0
  %21 = select i1 %20, i32 232, i32 233
  call void @tcg_out_opc(ptr noundef %18, i32 noundef %21, i32 noundef 0, i32 noundef 0, i32 noundef 0)
  %22 = load ptr, ptr %4, align 8
  %23 = load i64, ptr %7, align 8
  %24 = trunc i64 %23 to i32
  call void @tcg_out32(ptr noundef %22, i32 noundef %24)
  br label %41

25:                                               ; preds = %3
  %26 = load ptr, ptr %4, align 8
  call void @tcg_out_opc(ptr noundef %26, i32 noundef 255, i32 noundef 0, i32 noundef 0, i32 noundef 0)
  %27 = load ptr, ptr %4, align 8
  %28 = load i32, ptr %5, align 4
  %29 = icmp ne i32 %28, 0
  %30 = select i1 %29, i32 2, i32 4
  %31 = shl i32 %30, 3
  %32 = or i32 %31, 5
  %33 = trunc i32 %32 to i8
  call void @tcg_out8(ptr noundef %27, i8 noundef zeroext %33)
  %34 = load ptr, ptr %4, align 8
  %35 = load ptr, ptr %6, align 8
  %36 = ptrtoint ptr %35 to i64
  %37 = load ptr, ptr %4, align 8
  %38 = getelementptr inbounds nuw %struct.TCGContext, ptr %37, i32 0, i32 23
  %39 = load ptr, ptr %38, align 8
  call void @new_pool_label(ptr noundef %34, i64 noundef %36, i32 noundef 2, ptr noundef %39, i64 noundef -4)
  %40 = load ptr, ptr %4, align 8
  call void @tcg_out32(ptr noundef %40, i32 noundef 0)
  br label %41

41:                                               ; preds = %25, %17
  call void @llvm.lifetime.end.p0(i64 8, ptr %7) #19
  ret void
}