; Function Attrs: nounwind sspstrong uwtable
define internal fastcc void @tcg_out_branch(ptr noundef captures(none) %0, i32 noundef range(i32 0, 2) %1, ptr noundef %2) unnamed_addr #0 {
  %4 = getelementptr i8, ptr %0, i64 128
  %.val = load ptr, ptr %4, align 8
  %.not.i.i = icmp eq ptr %.val, null
  %5 = load i64, ptr @tcg_splitwx_diff, align 8
  %6 = getelementptr inbounds nuw i8, ptr %.val, i64 %5
  %7 = select i1 %.not.i.i, ptr null, ptr %6
  %8 = ptrtoint ptr %2 to i64
  %9 = ptrtoint ptr %7 to i64
  %10 = sub i64 %8, %9
  %11 = add i64 %10, 2147483643
  %12 = icmp ult i64 %11, 4294967296
  br i1 %12, label %13, label %18

13:                                               ; preds = %3
  %14 = trunc i64 %10 to i32
  %15 = add i32 %14, -5
  %.not14 = icmp eq i32 %1, 0
  %16 = select i1 %.not14, i8 -23, i8 -24
  %17 = getelementptr inbounds nuw i8, ptr %.val, i64 1
  store ptr %17, ptr %4, align 8
  store i8 %16, ptr %.val, align 1
  br label %50

18:                                               ; preds = %3
  %19 = getelementptr inbounds nuw i8, ptr %.val, i64 1
  store ptr %19, ptr %4, align 8
  store i8 -1, ptr %.val, align 1
  %.not = icmp eq i32 %1, 0
  %20 = select i1 %.not, i8 37, i8 21
  %21 = load ptr, ptr %4, align 8
  %22 = getelementptr inbounds nuw i8, ptr %21, i64 1
  store ptr %22, ptr %4, align 8
  store i8 %20, ptr %21, align 1
  %23 = load ptr, ptr %4, align 8
  %24 = tail call align 8 ptr @llvm.threadlocal.address.p0(ptr align 8 @tcg_ctx)
  %25 = load ptr, ptr %24, align 8
  %26 = load ptr, ptr %25, align 8
  %27 = getelementptr inbounds nuw i8, ptr %26, i64 40
  %28 = getelementptr inbounds nuw i8, ptr %25, i64 8
  %29 = load ptr, ptr %28, align 8
  %30 = icmp ugt ptr %27, %29
  br i1 %30, label %31, label %33, !prof !4

31:                                               ; preds = %18
  %32 = tail call ptr @tcg_malloc_internal(ptr noundef nonnull %25, i32 noundef 40)
  br label %new_pool_alloc.exit.i

33:                                               ; preds = %18
  store ptr %27, ptr %25, align 8
  br label %new_pool_alloc.exit.i

new_pool_alloc.exit.i:                            ; preds = %33, %31
  %.0.i.i.i = phi ptr [ %32, %31 ], [ %26, %33 ]
  %34 = getelementptr inbounds nuw i8, ptr %.0.i.i.i, i64 8
  store ptr %23, ptr %34, align 8
  %35 = getelementptr inbounds nuw i8, ptr %.0.i.i.i, i64 16
  store i64 -4, ptr %35, align 8
  %36 = getelementptr inbounds nuw i8, ptr %.0.i.i.i, i64 24
  store i32 2, ptr %36, align 8
  %37 = getelementptr inbounds nuw i8, ptr %.0.i.i.i, i64 28
  store i32 1, ptr %37, align 4
  %38 = getelementptr inbounds nuw i8, ptr %.0.i.i.i, i64 32
  store i64 %8, ptr %38, align 8
  %39 = getelementptr inbounds nuw i8, ptr %0, i64 200
  %40 = load ptr, ptr %39, align 8
  %.not17.i.i = icmp eq ptr %40, null
  br i1 %.not17.i.i, label %new_pool_label.exit, label %.lr.ph.i.i

.lr.ph.i.i:                                       ; preds = %new_pool_alloc.exit.i, %48
  %41 = phi ptr [ %49, %48 ], [ %40, %new_pool_alloc.exit.i ]
  %.018.i.i = phi ptr [ %41, %48 ], [ %39, %new_pool_alloc.exit.i ]
  %42 = getelementptr inbounds nuw i8, ptr %41, i64 28
  %43 = load i32, ptr %42, align 4
  switch i32 %43, label %48 [
    i32 0, label %new_pool_label.exit
    i32 1, label %44
  ]

44:                                               ; preds = %.lr.ph.i.i
  %45 = getelementptr inbounds nuw i8, ptr %41, i64 32
  %46 = tail call i32 @memcmp(ptr noundef nonnull dereferenceable(8) %38, ptr noundef nonnull dereferenceable(8) %45, i64 noundef 8) #34
  %47 = icmp sgt i32 %46, -1
  br i1 %47, label %new_pool_label.exit, label %48

48:                                               ; preds = %44, %.lr.ph.i.i
  %49 = load ptr, ptr %41, align 8
  %.not.i.i15 = icmp eq ptr %49, null
  br i1 %.not.i.i15, label %new_pool_label.exit, label %.lr.ph.i.i, !llvm.loop !96

new_pool_label.exit:                              ; preds = %.lr.ph.i.i, %44, %48, %new_pool_alloc.exit.i
  %.0.lcssa.i.i = phi ptr [ %39, %new_pool_alloc.exit.i ], [ %.018.i.i, %44 ], [ %.018.i.i, %.lr.ph.i.i ], [ %41, %48 ]
  %.lcssa.i.i = phi ptr [ null, %new_pool_alloc.exit.i ], [ %41, %44 ], [ %41, %.lr.ph.i.i ], [ null, %48 ]
  store ptr %.lcssa.i.i, ptr %.0.i.i.i, align 8
  store ptr %.0.i.i.i, ptr %.0.lcssa.i.i, align 8
  br label %50

50:                                               ; preds = %new_pool_label.exit, %13
  %.sink = phi i32 [ 0, %new_pool_label.exit ], [ %15, %13 ]
  %51 = load ptr, ptr %4, align 8
  store i32 %.sink, ptr %51, align 1
  %storemerge = getelementptr inbounds nuw i8, ptr %51, i64 4
  store ptr %storemerge, ptr %4, align 8
  ret void
}